; Function Attrs: mustprogress uwtable
define internal noundef nonnull ptr @_ZN7testing8internal24ParameterizedTestFactoryIN12_GLOBAL__N_144ConcurrentSequenceLockTest_ReadAndWrite_TestEE10CreateTestEv(ptr noundef nonnull align 8 dereferenceable(16) %0) unnamed_addr #4 align 2 personality ptr @__gxx_personality_v0 {
  %2 = getelementptr inbounds nuw i8, ptr %0, i64 8
  store ptr %2, ptr @_ZN7testing18WithParamInterfaceISt5tupleIJiiEEE10parameter_E, align 8, !tbaa !103
  %3 = tail call noalias noundef nonnull dereferenceable(32) ptr @_Znwm(i64 noundef 32) #33
  invoke void @_ZN7testing4TestC2Ev(ptr noundef nonnull align 8 dereferenceable(32) %3)
          to label %.noexc unwind label %16

.noexc:                                           ; preds = %1
  %4 = getelementptr inbounds nuw i8, ptr %3, i64 16
  store ptr getelementptr inbounds nuw inrange(-16, 48) (i8, ptr @_ZTVN12_GLOBAL__N_126ConcurrentSequenceLockTestE, i64 16), ptr %3, align 8, !tbaa !18
  store ptr getelementptr inbounds nuw inrange(-16, 16) (i8, ptr @_ZTVN12_GLOBAL__N_126ConcurrentSequenceLockTestE, i64 80), ptr %4, align 8, !tbaa !18
  %5 = invoke noundef nonnull align 4 dereferenceable(8) ptr @_ZN7testing18WithParamInterfaceISt5tupleIJiiEEE8GetParamEv()
          to label %6 unwind label %11

6:                                                ; preds = %.noexc
  %7 = getelementptr inbounds nuw i8, ptr %3, i64 24
  %8 = getelementptr inbounds nuw i8, ptr %5, i64 4
  %9 = load i32, ptr %8, align 4, !tbaa !35
  store i32 %9, ptr %7, align 8, !tbaa !105
  %10 = invoke noundef nonnull align 4 dereferenceable(8) ptr @_ZN7testing18WithParamInterfaceISt5tupleIJiiEEE8GetParamEv()
          to label %13 unwind label %11

11:                                               ; preds = %6, %.noexc
  %12 = landingpad { ptr, i32 }
          cleanup
  tail call void @_ZN7testing4TestD2Ev(ptr noundef nonnull align 8 dereferenceable(32) %3) #32
  br label %.body

13:                                               ; preds = %6
  %14 = getelementptr inbounds nuw i8, ptr %3, i64 28
  %15 = load i32, ptr %10, align 4, !tbaa !35
  store i32 %15, ptr %14, align 4, !tbaa !117
  store ptr getelementptr inbounds nuw inrange(-16, 48) (i8, ptr @_ZTVN12_GLOBAL__N_144ConcurrentSequenceLockTest_ReadAndWrite_TestE, i64 16), ptr %3, align 8, !tbaa !18
  store ptr getelementptr inbounds nuw inrange(-16, 16) (i8, ptr @_ZTVN12_GLOBAL__N_144ConcurrentSequenceLockTest_ReadAndWrite_TestE, i64 80), ptr %4, align 8, !tbaa !18
  ret ptr %3

16:                                               ; preds = %1
  %17 = landingpad { ptr, i32 }
          cleanup
  br label %.body

.body:                                            ; preds = %11, %16
  %eh.lpad-body = phi { ptr, i32 } [ %17, %16 ], [ %12, %11 ]
  tail call void @_ZdlPvm(ptr noundef nonnull %3, i64 noundef 32) #34
  resume { ptr, i32 } %eh.lpad-body
}